target datalayout = "e-m:e-p270:32:32-p271:32:32-p272:64:64-i64:64-i128:128-f80:128-n8:16:32:64-S128"
target triple = "x86_64-pc-linux-gnu"

%class.ptr_vector.50 = type { %class.vector.51 }
%class.vector.51 = type { ptr }
%"class.euf::justification" = type { i32, %union.anon, %union.anon.58 }
%union.anon = type { ptr }
%union.anon.58 = type { ptr }
%"class.euf::enode" = type { ptr, i8, i8, i8, i8, i8, i8, i8, i8, i8, i32, i32, i32, i32, i32, i32, %class.ptr_vector.50, ptr, ptr, ptr, ptr, %class.id_var_list, %"class.euf::justification", %"class.euf::justification", i32, i8, %class.approx_set, %class.approx_set, [0 x ptr] }
%class.id_var_list = type { i32, ptr }
%class.approx_set = type { %class.approx_set_tpl }
%class.approx_set_tpl = type { i64 }

; Function Attrs: mustprogress nounwind uwtable
define linkonce_odr hidden noundef zeroext i1 @_ZNK3euf5enode11interpretedEv(ptr noundef nonnull align 8 dereferenceable(176) %0) #5 comdat align 2 {
  %2 = alloca ptr, align 8
  store ptr %0, ptr %2, align 8, !tbaa !66
  %3 = load ptr, ptr %2, align 8
  %4 = getelementptr inbounds nuw %"class.euf::enode", ptr %3, i32 0, i32 5
  %5 = load i8, ptr %4, align 4, !tbaa !259, !range !54, !noundef !55
  %6 = trunc i8 %5 to i1
  ret i1 %6
}

; Function Attrs: mustprogress nounwind uwtable
define linkonce_odr hidden noundef ptr @_ZNK3euf5enode8get_rootEv(ptr noundef nonnull align 8 dereferenceable(176) %0) #5 comdat align 2 {
  %2 = alloca ptr, align 8
  store ptr %0, ptr %2, align 8, !tbaa !66
  %3 = load ptr, ptr %2, align 8
  %4 = getelementptr inbounds nuw %"class.euf::enode", ptr %3, i32 0, i32 18
  %5 = load ptr, ptr %4, align 8, !tbaa !228
  ret ptr %5
}

; Function Attrs: mustprogress uwtable
define hidden noundef zeroext i1 @_ZN3sls12array_plugin12are_distinctEPN3euf5enodeES3_(ptr noundef nonnull align 8 dereferenceable(96) %0, ptr noundef %1, ptr noundef %2) #4 align 2 {
  %4 = alloca ptr, align 8
  %5 = alloca ptr, align 8
  %6 = alloca ptr, align 8
  store ptr %0, ptr %4, align 8, !tbaa !3
  store ptr %1, ptr %5, align 8, !tbaa !66
  store ptr %2, ptr %6, align 8, !tbaa !66
  %7 = load ptr, ptr %5, align 8, !tbaa !66
  %8 = call noundef ptr @_ZNK3euf5enode8get_rootEv(ptr noundef nonnull align 8 dereferenceable(176) %7)
  store ptr %8, ptr %5, align 8, !tbaa !66
  %9 = load ptr, ptr %6, align 8, !tbaa !66
  %10 = call noundef ptr @_ZNK3euf5enode8get_rootEv(ptr noundef nonnull align 8 dereferenceable(176) %9)
  store ptr %10, ptr %6, align 8, !tbaa !66
  %11 = load ptr, ptr %5, align 8, !tbaa !66
  %12 = call noundef zeroext i1 @_ZNK3euf5enode11interpretedEv(ptr noundef nonnull align 8 dereferenceable(176) %11)
  br i1 %12, label %13, label %20

13:                                               ; preds = %3
  %14 = load ptr, ptr %6, align 8, !tbaa !66
  %15 = call noundef zeroext i1 @_ZNK3euf5enode11interpretedEv(ptr noundef nonnull align 8 dereferenceable(176) %14)
  br i1 %15, label %16, label %20

16:                                               ; preds = %13
  %17 = load ptr, ptr %5, align 8, !tbaa !66
  %18 = load ptr, ptr %6, align 8, !tbaa !66
  %19 = icmp ne ptr %17, %18
  br label %20

20:                                               ; preds = %16, %13, %3
  %21 = phi i1 [ false, %13 ], [ false, %3 ], [ %19, %16 ]
  ret i1 %21
}