; Function Attrs: mustprogress nofree norecurse nosync nounwind willreturn memory(read, inaccessiblemem: none) uwtable
define hidden noundef zeroext i1 @_ZN3sls12array_plugin12are_distinctEPN3euf5enodeES3_(ptr noundef nonnull readnone align 8 captures(none) dereferenceable(96) %0, ptr noundef readonly captures(none) %1, ptr noundef readonly captures(none) %2) local_unnamed_addr #7 align 2 {
  %4 = getelementptr inbounds nuw i8, ptr %1, i64 64
  %5 = load ptr, ptr %4, align 8, !tbaa !189
  %6 = getelementptr inbounds nuw i8, ptr %5, i64 12
  %7 = load i8, ptr %6, align 4, !tbaa !190, !range !44, !noundef !45
  %8 = trunc nuw i8 %7 to i1
  br i1 %8, label %9, label %16

9:                                                ; preds = %3
  %10 = getelementptr inbounds nuw i8, ptr %2, i64 64
  %11 = load ptr, ptr %10, align 8, !tbaa !189
  %12 = getelementptr inbounds nuw i8, ptr %11, i64 12
  %13 = load i8, ptr %12, align 4, !tbaa !190, !range !44, !noundef !45
  %14 = trunc nuw i8 %13 to i1
  %15 = icmp ne ptr %5, %11
  %spec.select = and i1 %15, %14
  br label %16

16:                                               ; preds = %9, %3
  %17 = phi i1 [ false, %3 ], [ %spec.select, %9 ]
  ret i1 %17
}